target datalayout = "e-m:e-p270:32:32-p271:32:32-p272:64:64-i64:64-i128:128-f80:128-n8:16:32:64-S128"
target triple = "x86_64-pc-linux-gnu"

%struct.Gia_ManEra_t_ = type { ptr, i32, i32, ptr, ptr, ptr, ptr, i32, ptr, ptr, i32, ptr }
%struct.Vec_Ptr_t_ = type { i32, i32, ptr }
%struct.Gia_ObjEra_t_ = type { i32, i32, i32, i32, [0 x i32] }

; Function Attrs: nounwind uwtable
define i32 @Gia_ManEraStateHash(ptr noundef %0, i32 noundef %1, i32 noundef %2) #0 {
  %4 = alloca ptr, align 8
  %5 = alloca i32, align 4
  %6 = alloca i32, align 4
  %7 = alloca i32, align 4
  %8 = alloca i32, align 4
  store ptr %0, ptr %4, align 8
  store i32 %1, ptr %5, align 4
  store i32 %2, ptr %6, align 4
  store i32 0, ptr %7, align 4
  store i32 0, ptr %8, align 4
  br label %9

9:                                                ; preds = %27, %3
  %10 = load i32, ptr %8, align 4
  %11 = load i32, ptr %5, align 4
  %12 = icmp slt i32 %10, %11
  br i1 %12, label %13, label %30

13:                                               ; preds = %9
  %14 = load ptr, ptr %4, align 8
  %15 = load i32, ptr %8, align 4
  %16 = sext i32 %15 to i64
  %17 = getelementptr inbounds i32, ptr %14, i64 %16
  %18 = load i32, ptr %17, align 4
  %19 = load i32, ptr %8, align 4
  %20 = and i32 %19, 127
  %21 = sext i32 %20 to i64
  %22 = getelementptr inbounds [128 x i32], ptr @Gia_ManEraStateHash.s_FPrimes, i64 0, i64 %21
  %23 = load i32, ptr %22, align 4
  %24 = mul i32 %18, %23
  %25 = load i32, ptr %7, align 4
  %26 = xor i32 %25, %24
  store i32 %26, ptr %7, align 4
  br label %27

27:                                               ; preds = %13
  %28 = load i32, ptr %8, align 4
  %29 = add nsw i32 %28, 1
  store i32 %29, ptr %8, align 4
  br label %9, !llvm.loop !11

30:                                               ; preds = %9
  %31 = load i32, ptr %7, align 4
  %32 = load i32, ptr %6, align 4
  %33 = urem i32 %31, %32
  ret i32 %33
}

; Function Attrs: nounwind uwtable
define internal ptr @Vec_PtrEntry(ptr noundef %0, i32 noundef %1) #0 {
  %3 = alloca ptr, align 8
  %4 = alloca i32, align 4
  store ptr %0, ptr %3, align 8
  store i32 %1, ptr %4, align 4
  %5 = load ptr, ptr %3, align 8
  %6 = getelementptr inbounds %struct.Vec_Ptr_t_, ptr %5, i32 0, i32 2
  %7 = load ptr, ptr %6, align 8
  %8 = load i32, ptr %4, align 4
  %9 = sext i32 %8 to i64
  %10 = getelementptr inbounds ptr, ptr %7, i64 %9
  %11 = load ptr, ptr %10, align 8
  ret ptr %11
}

; Function Attrs: nounwind uwtable
define internal ptr @Gia_ManEraHashFind(ptr noundef %0, ptr noundef %1, ptr noundef %2) #0 {
  %4 = alloca ptr, align 8
  %5 = alloca ptr, align 8
  %6 = alloca ptr, align 8
  %7 = alloca ptr, align 8
  %8 = alloca ptr, align 8
  %9 = alloca ptr, align 8
  store ptr %0, ptr %5, align 8
  store ptr %1, ptr %6, align 8
  store ptr %2, ptr %7, align 8
  %10 = load ptr, ptr %5, align 8
  %11 = getelementptr inbounds %struct.Gia_ManEra_t_, ptr %10, i32 0, i32 11
  %12 = load ptr, ptr %11, align 8
  %13 = load ptr, ptr %6, align 8
  %14 = getelementptr inbounds %struct.Gia_ObjEra_t_, ptr %13, i32 0, i32 4
  %15 = getelementptr inbounds [0 x i32], ptr %14, i64 0, i64 0
  %16 = load ptr, ptr %5, align 8
  %17 = getelementptr inbounds %struct.Gia_ManEra_t_, ptr %16, i32 0, i32 2
  %18 = load i32, ptr %17, align 4
  %19 = load ptr, ptr %5, align 8
  %20 = getelementptr inbounds %struct.Gia_ManEra_t_, ptr %19, i32 0, i32 10
  %21 = load i32, ptr %20, align 8
  %22 = call i32 @Gia_ManEraStateHash(ptr noundef %15, i32 noundef %18, i32 noundef %21)
  %23 = sext i32 %22 to i64
  %24 = getelementptr inbounds i32, ptr %12, i64 %23
  store ptr %24, ptr %9, align 8
  %25 = load ptr, ptr %9, align 8
  %26 = load i32, ptr %25, align 4
  %27 = icmp ne i32 %26, 0
  br i1 %27, label %28, label %33

28:                                               ; preds = %3
  %29 = load ptr, ptr %5, align 8
  %30 = load ptr, ptr %9, align 8
  %31 = load i32, ptr %30, align 4
  %32 = call ptr @Gia_ManEraState(ptr noundef %29, i32 noundef %31)
  br label %34

33:                                               ; preds = %3
  br label %34

34:                                               ; preds = %33, %28
  %35 = phi ptr [ %32, %28 ], [ null, %33 ]
  store ptr %35, ptr %8, align 8
  br label %36

36:                                               ; preds = %75, %34
  %37 = load ptr, ptr %8, align 8
  %38 = icmp ne ptr %37, null
  br i1 %38, label %39, label %77

39:                                               ; preds = %36
  %40 = load ptr, ptr %6, align 8
  %41 = getelementptr inbounds %struct.Gia_ObjEra_t_, ptr %40, i32 0, i32 4
  %42 = getelementptr inbounds [0 x i32], ptr %41, i64 0, i64 0
  %43 = load ptr, ptr %8, align 8
  %44 = getelementptr inbounds %struct.Gia_ObjEra_t_, ptr %43, i32 0, i32 4
  %45 = getelementptr inbounds [0 x i32], ptr %44, i64 0, i64 0
  %46 = load ptr, ptr %5, align 8
  %47 = getelementptr inbounds %struct.Gia_ManEra_t_, ptr %46, i32 0, i32 2
  %48 = load i32, ptr %47, align 4
  %49 = sext i32 %48 to i64
  %50 = mul i64 4, %49
  %51 = call i32 @memcmp(ptr noundef %42, ptr noundef %45, i64 noundef %50) #14
  %52 = icmp ne i32 %51, 0
  br i1 %52, label %62, label %53

53:                                               ; preds = %39
  %54 = load ptr, ptr %7, align 8
  %55 = icmp ne ptr %54, null
  br i1 %55, label %56, label %61

56:                                               ; preds = %53
  %57 = load ptr, ptr %8, align 8
  %58 = getelementptr inbounds %struct.Gia_ObjEra_t_, ptr %57, i32 0, i32 0
  %59 = load i32, ptr %58, align 4
  %60 = load ptr, ptr %7, align 8
  store i32 %59, ptr %60, align 4
  br label %61

61:                                               ; preds = %56, %53
  store ptr null, ptr %4, align 8
  br label %84

62:                                               ; preds = %39
  br label %63

63:                                               ; preds = %62
  %64 = load ptr, ptr %8, align 8
  %65 = getelementptr inbounds %struct.Gia_ObjEra_t_, ptr %64, i32 0, i32 3
  store ptr %65, ptr %9, align 8
  %66 = load ptr, ptr %9, align 8
  %67 = load i32, ptr %66, align 4
  %68 = icmp ne i32 %67, 0
  br i1 %68, label %69, label %74

69:                                               ; preds = %63
  %70 = load ptr, ptr %5, align 8
  %71 = load ptr, ptr %9, align 8
  %72 = load i32, ptr %71, align 4
  %73 = call ptr @Gia_ManEraState(ptr noundef %70, i32 noundef %72)
  br label %75

74:                                               ; preds = %63
  br label %75

75:                                               ; preds = %74, %69
  %76 = phi ptr [ %73, %69 ], [ null, %74 ]
  store ptr %76, ptr %8, align 8
  br label %36, !llvm.loop !14

77:                                               ; preds = %36
  %78 = load ptr, ptr %7, align 8
  %79 = icmp ne ptr %78, null
  br i1 %79, label %80, label %82

80:                                               ; preds = %77
  %81 = load ptr, ptr %7, align 8
  store i32 -1, ptr %81, align 4
  br label %82

82:                                               ; preds = %80, %77
  %83 = load ptr, ptr %9, align 8
  store ptr %83, ptr %4, align 8
  br label %84

84:                                               ; preds = %82, %61
  %85 = load ptr, ptr %4, align 8
  ret ptr %85
}

; Function Attrs: nounwind uwtable
define internal ptr @Gia_ManEraState(ptr noundef %0, i32 noundef %1) #0 {
  %3 = alloca ptr, align 8
  %4 = alloca i32, align 4
  store ptr %0, ptr %3, align 8
  store i32 %1, ptr %4, align 4
  %5 = load ptr, ptr %3, align 8
  %6 = getelementptr inbounds %struct.Gia_ManEra_t_, ptr %5, i32 0, i32 5
  %7 = load ptr, ptr %6, align 8
  %8 = load i32, ptr %4, align 4
  %9 = call ptr @Vec_PtrEntry(ptr noundef %7, i32 noundef %8)
  ret ptr %9
}

; Function Attrs: nounwind uwtable
define internal i32 @Abc_PrimeCudd(i32 noundef %0) #0 {
  %2 = alloca i32, align 4
  %3 = alloca i32, align 4
  %4 = alloca i32, align 4
  store i32 %0, ptr %2, align 4
  %5 = load i32, ptr %2, align 4
  %6 = add i32 %5, -1
  store i32 %6, ptr %2, align 4
  br label %7

7:                                                ; preds = %32, %1
  %8 = load i32, ptr %2, align 4
  %9 = add i32 %8, 1
  store i32 %9, ptr %2, align 4
  %10 = load i32, ptr %2, align 4
  %11 = and i32 %10, 1
  %12 = icmp ne i32 %11, 0
  br i1 %12, label %13, label %30

13:                                               ; preds = %7
  store i32 1, ptr %4, align 4
  store i32 3, ptr %3, align 4
  br label %14

14:                                               ; preds = %26, %13
  %15 = load i32, ptr %3, align 4
  %16 = load i32, ptr %3, align 4
  %17 = mul nsw i32 %15, %16
  %18 = load i32, ptr %2, align 4
  %19 = icmp ule i32 %17, %18
  br i1 %19, label %20, label %29

20:                                               ; preds = %14
  %21 = load i32, ptr %2, align 4
  %22 = load i32, ptr %3, align 4
  %23 = urem i32 %21, %22
  %24 = icmp eq i32 %23, 0
  br i1 %24, label %25, label %26

25:                                               ; preds = %20
  store i32 0, ptr %4, align 4
  br label %29

26:                                               ; preds = %20
  %27 = load i32, ptr %3, align 4
  %28 = add nsw i32 %27, 2
  store i32 %28, ptr %3, align 4
  br label %14, !llvm.loop !6

29:                                               ; preds = %25, %14
  br label %31

30:                                               ; preds = %7
  store i32 0, ptr %4, align 4
  br label %31

31:                                               ; preds = %30, %29
  br label %32

32:                                               ; preds = %31
  %33 = load i32, ptr %4, align 4
  %34 = icmp ne i32 %33, 0
  %35 = xor i1 %34, true
  br i1 %35, label %7, label %36, !llvm.loop !7

36:                                               ; preds = %32
  %37 = load i32, ptr %2, align 4
  ret i32 %37
}

; Function Attrs: nounwind uwtable
define void @Gia_ManEraHashResize(ptr noundef %0) #0 {
  %2 = alloca ptr, align 8
  %3 = alloca ptr, align 8
  %4 = alloca ptr, align 8
  %5 = alloca ptr, align 8
  %6 = alloca i32, align 4
  %7 = alloca i32, align 4
  %8 = alloca i32, align 4
  %9 = alloca i32, align 4
  store ptr %0, ptr %2, align 8
  %10 = load ptr, ptr %2, align 8
  %11 = getelementptr inbounds %struct.Gia_ManEra_t_, ptr %10, i32 0, i32 11
  %12 = load ptr, ptr %11, align 8
  store ptr %12, ptr %4, align 8
  %13 = load ptr, ptr %2, align 8
  %14 = getelementptr inbounds %struct.Gia_ManEra_t_, ptr %13, i32 0, i32 10
  %15 = load i32, ptr %14, align 8
  store i32 %15, ptr %6, align 4
  %16 = load ptr, ptr %2, align 8
  %17 = getelementptr inbounds %struct.Gia_ManEra_t_, ptr %16, i32 0, i32 10
  %18 = load i32, ptr %17, align 8
  %19 = mul nsw i32 3, %18
  %20 = call i32 @Abc_PrimeCudd(i32 noundef %19)
  %21 = load ptr, ptr %2, align 8
  %22 = getelementptr inbounds %struct.Gia_ManEra_t_, ptr %21, i32 0, i32 10
  store i32 %20, ptr %22, align 8
  %23 = load ptr, ptr %2, align 8
  %24 = getelementptr inbounds %struct.Gia_ManEra_t_, ptr %23, i32 0, i32 10
  %25 = load i32, ptr %24, align 8
  %26 = sext i32 %25 to i64
  %27 = call noalias ptr @calloc(i64 noundef %26, i64 noundef 4) #11
  %28 = load ptr, ptr %2, align 8
  %29 = getelementptr inbounds %struct.Gia_ManEra_t_, ptr %28, i32 0, i32 11
  store ptr %27, ptr %29, align 8
  store i32 0, ptr %8, align 4
  store i32 0, ptr %9, align 4
  br label %30

30:                                               ; preds = %96, %1
  %31 = load i32, ptr %9, align 4
  %32 = load i32, ptr %6, align 4
  %33 = icmp slt i32 %31, %32
  br i1 %33, label %34, label %99

34:                                               ; preds = %30
  %35 = load ptr, ptr %4, align 8
  %36 = load i32, ptr %9, align 4
  %37 = sext i32 %36 to i64
  %38 = getelementptr inbounds i32, ptr %35, i64 %37
  %39 = load i32, ptr %38, align 4
  %40 = icmp ne i32 %39, 0
  br i1 %40, label %41, label %49

41:                                               ; preds = %34
  %42 = load ptr, ptr %2, align 8
  %43 = load ptr, ptr %4, align 8
  %44 = load i32, ptr %9, align 4
  %45 = sext i32 %44 to i64
  %46 = getelementptr inbounds i32, ptr %43, i64 %45
  %47 = load i32, ptr %46, align 4
  %48 = call ptr @Gia_ManEraState(ptr noundef %42, i32 noundef %47)
  br label %50

49:                                               ; preds = %34
  br label %50

50:                                               ; preds = %49, %41
  %51 = phi ptr [ %48, %41 ], [ null, %49 ]
  store ptr %51, ptr %3, align 8
  %52 = load ptr, ptr %3, align 8
  %53 = icmp ne ptr %52, null
  br i1 %53, label %54, label %58

54:                                               ; preds = %50
  %55 = load ptr, ptr %3, align 8
  %56 = getelementptr inbounds %struct.Gia_ObjEra_t_, ptr %55, i32 0, i32 3
  %57 = load i32, ptr %56, align 4
  br label %59

58:                                               ; preds = %50
  br label %59

59:                                               ; preds = %58, %54
  %60 = phi i32 [ %57, %54 ], [ 0, %58 ]
  store i32 %60, ptr %7, align 4
  br label %61

61:                                               ; preds = %93, %59
  %62 = load ptr, ptr %3, align 8
  %63 = icmp ne ptr %62, null
  br i1 %63, label %64, label %95

64:                                               ; preds = %61
  %65 = load ptr, ptr %3, align 8
  %66 = getelementptr inbounds %struct.Gia_ObjEra_t_, ptr %65, i32 0, i32 3
  store i32 0, ptr %66, align 4
  %67 = load ptr, ptr %2, align 8
  %68 = load ptr, ptr %3, align 8
  %69 = call ptr @Gia_ManEraHashFind(ptr noundef %67, ptr noundef %68, ptr noundef null)
  store ptr %69, ptr %5, align 8
  %70 = load ptr, ptr %3, align 8
  %71 = getelementptr inbounds %struct.Gia_ObjEra_t_, ptr %70, i32 0, i32 0
  %72 = load i32, ptr %71, align 4
  %73 = load ptr, ptr %5, align 8
  store i32 %72, ptr %73, align 4
  %74 = load i32, ptr %8, align 4
  %75 = add nsw i32 %74, 1
  store i32 %75, ptr %8, align 4
  br label %76

76:                                               ; preds = %64
  %77 = load i32, ptr %7, align 4
  %78 = icmp ne i32 %77, 0
  br i1 %78, label %79, label %83

79:                                               ; preds = %76
  %80 = load ptr, ptr %2, align 8
  %81 = load i32, ptr %7, align 4
  %82 = call ptr @Gia_ManEraState(ptr noundef %80, i32 noundef %81)
  br label %84

83:                                               ; preds = %76
  br label %84

84:                                               ; preds = %83, %79
  %85 = phi ptr [ %82, %79 ], [ null, %83 ]
  store ptr %85, ptr %3, align 8
  %86 = load ptr, ptr %3, align 8
  %87 = icmp ne ptr %86, null
  br i1 %87, label %88, label %92

88:                                               ; preds = %84
  %89 = load ptr, ptr %3, align 8
  %90 = getelementptr inbounds %struct.Gia_ObjEra_t_, ptr %89, i32 0, i32 3
  %91 = load i32, ptr %90, align 4
  br label %93

92:                                               ; preds = %84
  br label %93

93:                                               ; preds = %92, %88
  %94 = phi i32 [ %91, %88 ], [ 0, %92 ]
  store i32 %94, ptr %7, align 4
  br label %61, !llvm.loop !12

95:                                               ; preds = %61
  br label %96

96:                                               ; preds = %95
  %97 = load i32, ptr %9, align 4
  %98 = add nsw i32 %97, 1
  store i32 %98, ptr %9, align 4
  br label %30, !llvm.loop !13

99:                                               ; preds = %30
  %100 = load ptr, ptr %4, align 8
  %101 = icmp ne ptr %100, null
  br i1 %101, label %102, label %104

102:                                              ; preds = %99
  %103 = load ptr, ptr %4, align 8
  call void @free(ptr noundef %103) #13
  store ptr null, ptr %4, align 8
  br label %105

104:                                              ; preds = %99
  br label %105

105:                                              ; preds = %104, %102
  ret void
}