; Function Attrs: nounwind uwtable
define void @Gia_ManEraHashResize(ptr noundef captures(none) %0) local_unnamed_addr #0 {
  %2 = getelementptr inbounds nuw i8, ptr %0, i64 80
  %3 = load ptr, ptr %2, align 8
  %4 = getelementptr inbounds nuw i8, ptr %0, i64 72
  %5 = load i32, ptr %4, align 8
  %6 = mul nsw i32 %5, 3
  %7 = add i32 %6, -1
  br label %.loopexit.i

.loopexit.i:                                      ; preds = %.loopexit.i.backedge, %1
  %.012.i = phi i32 [ %7, %1 ], [ %8, %.loopexit.i.backedge ]
  %8 = add i32 %.012.i, 1
  %9 = and i32 %.012.i, 1
  %.not.not.i = icmp eq i32 %9, 0
  br i1 %.not.not.i, label %.preheader.i, label %.loopexit.i.backedge

.loopexit.i.backedge:                             ; preds = %.lr.ph.i, %.loopexit.i
  br label %.loopexit.i, !llvm.loop !4

.preheader.i:                                     ; preds = %.loopexit.i
  %.not15.i = icmp ult i32 %8, 9
  br i1 %.not15.i, label %Abc_PrimeCudd.exit, label %.lr.ph.i

10:                                               ; preds = %.lr.ph.i
  %11 = add nuw nsw i32 %.01116.i, 2
  %12 = mul nuw nsw i32 %11, %11
  %.not.i = icmp ugt i32 %12, %8
  br i1 %.not.i, label %Abc_PrimeCudd.exit, label %.lr.ph.i, !llvm.loop !6

.lr.ph.i:                                         ; preds = %.preheader.i, %10
  %.01116.i = phi i32 [ %11, %10 ], [ 3, %.preheader.i ]
  %13 = urem i32 %8, %.01116.i
  %14 = icmp eq i32 %13, 0
  br i1 %14, label %.loopexit.i.backedge, label %10, !llvm.loop !4

Abc_PrimeCudd.exit:                               ; preds = %.preheader.i, %10
  store i32 %8, ptr %4, align 8
  %15 = sext i32 %8 to i64
  %16 = tail call noalias ptr @calloc(i64 noundef %15, i64 noundef 4) #20
  store ptr %16, ptr %2, align 8
  %17 = icmp sgt i32 %5, 0
  br i1 %17, label %.lr.ph57, label %._crit_edge58

.lr.ph57:                                         ; preds = %Abc_PrimeCudd.exit
  %18 = getelementptr i8, ptr %0, i64 32
  %19 = getelementptr inbounds nuw i8, ptr %0, i64 12
  %wide.trip.count = zext nneg i32 %5 to i64
  br label %20

20:                                               ; preds = %.lr.ph57, %._crit_edge
  %indvars.iv = phi i64 [ 0, %.lr.ph57 ], [ %indvars.iv.next, %._crit_edge ]
  %21 = getelementptr inbounds nuw i32, ptr %3, i64 %indvars.iv
  %22 = load i32, ptr %21, align 4
  %.not36 = icmp eq i32 %22, 0
  br i1 %.not36, label %._crit_edge, label %23

23:                                               ; preds = %20
  %.val = load ptr, ptr %18, align 8
  %24 = getelementptr i8, ptr %.val, i64 8
  %.val.val = load ptr, ptr %24, align 8
  %25 = sext i32 %22 to i64
  %26 = getelementptr inbounds ptr, ptr %.val.val, i64 %25
  %27 = load ptr, ptr %26, align 8
  %.not37 = icmp eq ptr %27, null
  br i1 %.not37, label %._crit_edge, label %.lr.ph

.lr.ph:                                           ; preds = %23, %64
  %.sink70 = phi ptr [ %68, %64 ], [ %27, %23 ]
  %28 = getelementptr inbounds nuw i8, ptr %.sink70, i64 12
  %29 = load i32, ptr %28, align 4
  %30 = getelementptr inbounds nuw i8, ptr %.sink70, i64 12
  store i32 0, ptr %30, align 4
  %31 = load ptr, ptr %2, align 8
  %32 = getelementptr inbounds nuw i8, ptr %.sink70, i64 16
  %33 = load i32, ptr %19, align 4
  %34 = load i32, ptr %4, align 8
  %35 = icmp sgt i32 %33, 0
  br i1 %35, label %.lr.ph.preheader.i.i, label %Gia_ManEraStateHash.exit.i

.lr.ph.preheader.i.i:                             ; preds = %.lr.ph
  %wide.trip.count.i.i = zext nneg i32 %33 to i64
  br label %.lr.ph.i.i

.lr.ph.i.i:                                       ; preds = %.lr.ph.i.i, %.lr.ph.preheader.i.i
  %indvars.iv.i.i = phi i64 [ 0, %.lr.ph.preheader.i.i ], [ %indvars.iv.next.i.i, %.lr.ph.i.i ]
  %.089.i.i = phi i32 [ 0, %.lr.ph.preheader.i.i ], [ %42, %.lr.ph.i.i ]
  %36 = getelementptr inbounds nuw i32, ptr %32, i64 %indvars.iv.i.i
  %37 = load i32, ptr %36, align 4
  %38 = and i64 %indvars.iv.i.i, 127
  %39 = getelementptr inbounds nuw [128 x i32], ptr @Gia_ManEraStateHash.s_FPrimes, i64 0, i64 %38
  %40 = load i32, ptr %39, align 4
  %41 = mul i32 %40, %37
  %42 = xor i32 %41, %.089.i.i
  %indvars.iv.next.i.i = add nuw nsw i64 %indvars.iv.i.i, 1
  %exitcond.not.i.i = icmp eq i64 %indvars.iv.next.i.i, %wide.trip.count.i.i
  br i1 %exitcond.not.i.i, label %Gia_ManEraStateHash.exit.i, label %.lr.ph.i.i, !llvm.loop !12

Gia_ManEraStateHash.exit.i:                       ; preds = %.lr.ph.i.i, %.lr.ph
  %.08.lcssa.i.i = phi i32 [ 0, %.lr.ph ], [ %42, %.lr.ph.i.i ]
  %43 = urem i32 %.08.lcssa.i.i, %34
  %44 = sext i32 %43 to i64
  %45 = getelementptr inbounds i32, ptr %31, i64 %44
  %46 = load i32, ptr %45, align 4
  %.not.i42 = icmp eq i32 %46, 0
  br i1 %.not.i42, label %Gia_ManEraHashFind.exit, label %47

47:                                               ; preds = %Gia_ManEraStateHash.exit.i
  %.val32.i = load ptr, ptr %18, align 8
  %48 = getelementptr i8, ptr %.val32.i, i64 8
  %.val32.val.i = load ptr, ptr %48, align 8
  %49 = sext i32 %46 to i64
  %50 = getelementptr inbounds ptr, ptr %.val32.val.i, i64 %49
  %51 = load ptr, ptr %50, align 8
  %.not2735.i = icmp eq ptr %51, null
  br i1 %.not2735.i, label %Gia_ManEraHashFind.exit, label %.lr.ph.i43

.lr.ph.i43:                                       ; preds = %47
  %52 = sext i32 %33 to i64
  %53 = shl nsw i64 %52, 2
  br label %54

54:                                               ; preds = %58, %.lr.ph.i43
  %.02236.i = phi ptr [ %51, %.lr.ph.i43 ], [ %61, %58 ]
  %55 = getelementptr inbounds nuw i8, ptr %.02236.i, i64 16
  %bcmp.i = tail call i32 @bcmp(ptr nonnull readonly %32, ptr nonnull %55, i64 %53)
  %.not29.i = icmp ne i32 %bcmp.i, 0
  tail call void @llvm.assume(i1 %.not29.i)
  %56 = getelementptr inbounds nuw i8, ptr %.02236.i, i64 12
  %57 = load i32, ptr %56, align 4
  %.not31.i = icmp eq i32 %57, 0
  br i1 %.not31.i, label %Gia_ManEraHashFind.exit.loopexit, label %58

58:                                               ; preds = %54
  %59 = sext i32 %57 to i64
  %60 = getelementptr inbounds ptr, ptr %.val32.val.i, i64 %59
  %61 = load ptr, ptr %60, align 8
  %.not27.i = icmp eq ptr %61, null
  br i1 %.not27.i, label %Gia_ManEraHashFind.exit.loopexit, label %54, !llvm.loop !13

Gia_ManEraHashFind.exit.loopexit:                 ; preds = %54, %58
  %62 = getelementptr inbounds nuw i8, ptr %.02236.i, i64 12
  br label %Gia_ManEraHashFind.exit

Gia_ManEraHashFind.exit:                          ; preds = %Gia_ManEraHashFind.exit.loopexit, %Gia_ManEraStateHash.exit.i, %47
  %.023.i = phi ptr [ %45, %47 ], [ %45, %Gia_ManEraStateHash.exit.i ], [ %62, %Gia_ManEraHashFind.exit.loopexit ]
  %63 = load i32, ptr %.sink70, align 4
  store i32 %63, ptr %.023.i, align 4
  %.not39 = icmp eq i32 %29, 0
  br i1 %.not39, label %._crit_edge, label %64

64:                                               ; preds = %Gia_ManEraHashFind.exit
  %.val41 = load ptr, ptr %18, align 8
  %65 = getelementptr i8, ptr %.val41, i64 8
  %.val41.val = load ptr, ptr %65, align 8
  %66 = sext i32 %29 to i64
  %67 = getelementptr inbounds ptr, ptr %.val41.val, i64 %66
  %68 = load ptr, ptr %67, align 8
  %.not40 = icmp eq ptr %68, null
  br i1 %.not40, label %._crit_edge, label %.lr.ph, !llvm.loop !14

._crit_edge:                                      ; preds = %Gia_ManEraHashFind.exit, %64, %20, %23
  %indvars.iv.next = add nuw nsw i64 %indvars.iv, 1
  %exitcond.not = icmp eq i64 %indvars.iv.next, %wide.trip.count
  br i1 %exitcond.not, label %._crit_edge58, label %20, !llvm.loop !15

._crit_edge58:                                    ; preds = %._crit_edge, %Abc_PrimeCudd.exit
  %.not = icmp eq ptr %3, null
  br i1 %.not, label %70, label %69

69:                                               ; preds = %._crit_edge58
  tail call void @free(ptr noundef nonnull %3) #22
  br label %70

70:                                               ; preds = %._crit_edge58, %69
  ret void
}